target datalayout = "e-m:e-p270:32:32-p271:32:32-p272:64:64-i64:64-i128:128-f80:128-n8:16:32:64-S128"
target triple = "x86_64-pc-linux-gnu"

%struct.Cbs3_Par_t_ = type { i32, i32, i32, i32, i32, i32, i32, i32 }
%struct.Cbs3_Man_t_ = type { %struct.Cbs3_Par_t_, ptr, %struct.Cbs3_Que_t_, %struct.Cbs3_Que_t_, %struct.Cbs3_Que_t_, ptr, ptr, i32, i32, i32, %struct.Vec_Int_t_, %struct.Vec_Int_t_, %struct.Vec_Int_t_, %struct.Vec_Wec_t_, %struct.Vec_Str_t_, %struct.Vec_Str_t_, %struct.Vec_Int_t_, %struct.Vec_Int_t_, %struct.Vec_Int_t_, %struct.Vec_Int_t_, i32, i32, i32, i32, i32, i32, i32, i64, i64, i64, i64, i64, i64, [3 x i32], [2 x i32], i32, i32 }
%struct.Cbs3_Que_t_ = type { i32, i32, i32, ptr }
%struct.Vec_Wec_t_ = type { i32, i32, ptr }
%struct.Vec_Str_t_ = type { i32, i32, ptr }
%struct.Vec_Int_t_ = type { i32, i32, ptr }

; Function Attrs: inlinehint nounwind uwtable
define internal i32 @Vec_IntCap(ptr noundef %0) #5 {
  %2 = alloca ptr, align 8
  store ptr %0, ptr %2, align 8, !tbaa !42
  %3 = load ptr, ptr %2, align 8, !tbaa !42
  %4 = getelementptr inbounds nuw %struct.Vec_Int_t_, ptr %3, i32 0, i32 0
  %5 = load i32, ptr %4, align 8, !tbaa !44
  ret i32 %5
}

; Function Attrs: inlinehint nounwind uwtable
define internal ptr @Vec_WecEntry(ptr noundef %0, i32 noundef %1) #5 {
  %3 = alloca ptr, align 8
  %4 = alloca i32, align 4
  store ptr %0, ptr %3, align 8, !tbaa !46
  store i32 %1, ptr %4, align 4, !tbaa !16
  %5 = load ptr, ptr %3, align 8, !tbaa !46
  %6 = getelementptr inbounds nuw %struct.Vec_Wec_t_, ptr %5, i32 0, i32 2
  %7 = load ptr, ptr %6, align 8, !tbaa !58
  %8 = load i32, ptr %4, align 4, !tbaa !16
  %9 = sext i32 %8 to i64
  %10 = getelementptr inbounds %struct.Vec_Int_t_, ptr %7, i64 %9
  ret ptr %10
}

; Function Attrs: inlinehint nounwind uwtable
define internal i32 @Vec_WecCap(ptr noundef %0) #5 {
  %2 = alloca ptr, align 8
  store ptr %0, ptr %2, align 8, !tbaa !46
  %3 = load ptr, ptr %2, align 8, !tbaa !46
  %4 = getelementptr inbounds nuw %struct.Vec_Wec_t_, ptr %3, i32 0, i32 0
  %5 = load i32, ptr %4, align 8, !tbaa !49
  ret i32 %5
}

; Function Attrs: inlinehint nounwind uwtable
define internal double @Vec_StrMemory(ptr noundef %0) #5 {
  %2 = alloca ptr, align 8
  store ptr %0, ptr %2, align 8, !tbaa !50
  %3 = load ptr, ptr %2, align 8, !tbaa !50
  %4 = icmp ne ptr %3, null
  br i1 %4, label %6, label %5

5:                                                ; preds = %1
  br label %13

6:                                                ; preds = %1
  %7 = load ptr, ptr %2, align 8, !tbaa !50
  %8 = getelementptr inbounds nuw %struct.Vec_Str_t_, ptr %7, i32 0, i32 0
  %9 = load i32, ptr %8, align 8, !tbaa !60
  %10 = sext i32 %9 to i64
  %11 = uitofp i64 %10 to double
  %12 = call double @llvm.fmuladd.f64(double 1.000000e+00, double %11, double 1.600000e+01)
  br label %13

13:                                               ; preds = %6, %5
  %14 = phi double [ 0.000000e+00, %5 ], [ %12, %6 ]
  ret double %14
}

; Function Attrs: inlinehint nounwind uwtable
define internal double @Vec_WecMemory(ptr noundef %0) #5 {
  %2 = alloca double, align 8
  %3 = alloca ptr, align 8
  %4 = alloca i32, align 4
  %5 = alloca double, align 8
  %6 = alloca i32, align 4
  store ptr %0, ptr %3, align 8, !tbaa !46
  call void @llvm.lifetime.start.p0(i64 4, ptr %4) #12
  call void @llvm.lifetime.start.p0(i64 8, ptr %5) #12
  %7 = load ptr, ptr %3, align 8, !tbaa !46
  %8 = icmp eq ptr %7, null
  br i1 %8, label %9, label %10

9:                                                ; preds = %1
  store double 0.000000e+00, ptr %2, align 8
  store i32 1, ptr %6, align 4
  br label %37

10:                                               ; preds = %1
  %11 = load ptr, ptr %3, align 8, !tbaa !46
  %12 = call i32 @Vec_WecCap(ptr noundef %11)
  %13 = sext i32 %12 to i64
  %14 = mul i64 16, %13
  %15 = uitofp i64 %14 to double
  store double %15, ptr %5, align 8, !tbaa !61
  store i32 0, ptr %4, align 4, !tbaa !16
  br label %16

16:                                               ; preds = %32, %10
  %17 = load i32, ptr %4, align 4, !tbaa !16
  %18 = load ptr, ptr %3, align 8, !tbaa !46
  %19 = getelementptr inbounds nuw %struct.Vec_Wec_t_, ptr %18, i32 0, i32 1
  %20 = load i32, ptr %19, align 4, !tbaa !48
  %21 = icmp slt i32 %17, %20
  br i1 %21, label %22, label %35

22:                                               ; preds = %16
  %23 = load ptr, ptr %3, align 8, !tbaa !46
  %24 = load i32, ptr %4, align 4, !tbaa !16
  %25 = call ptr @Vec_WecEntry(ptr noundef %23, i32 noundef %24)
  %26 = call i32 @Vec_IntCap(ptr noundef %25)
  %27 = sext i32 %26 to i64
  %28 = mul i64 4, %27
  %29 = uitofp i64 %28 to double
  %30 = load double, ptr %5, align 8, !tbaa !61
  %31 = fadd double %30, %29
  store double %31, ptr %5, align 8, !tbaa !61
  br label %32

32:                                               ; preds = %22
  %33 = load i32, ptr %4, align 4, !tbaa !16
  %34 = add nsw i32 %33, 1
  store i32 %34, ptr %4, align 4, !tbaa !16
  br label %16, !llvm.loop !63

35:                                               ; preds = %16
  %36 = load double, ptr %5, align 8, !tbaa !61
  store double %36, ptr %2, align 8
  store i32 1, ptr %6, align 4
  br label %37

37:                                               ; preds = %35, %9
  call void @llvm.lifetime.end.p0(i64 8, ptr %5) #12
  call void @llvm.lifetime.end.p0(i64 4, ptr %4) #12
  %38 = load double, ptr %2, align 8
  ret double %38
}

; Function Attrs: inlinehint nounwind uwtable
define internal double @Vec_IntMemory(ptr noundef %0) #5 {
  %2 = alloca ptr, align 8
  store ptr %0, ptr %2, align 8, !tbaa !42
  %3 = load ptr, ptr %2, align 8, !tbaa !42
  %4 = icmp ne ptr %3, null
  br i1 %4, label %6, label %5

5:                                                ; preds = %1
  br label %13

6:                                                ; preds = %1
  %7 = load ptr, ptr %2, align 8, !tbaa !42
  %8 = getelementptr inbounds nuw %struct.Vec_Int_t_, ptr %7, i32 0, i32 0
  %9 = load i32, ptr %8, align 8, !tbaa !44
  %10 = sext i32 %9 to i64
  %11 = uitofp i64 %10 to double
  %12 = call double @llvm.fmuladd.f64(double 4.000000e+00, double %11, double 1.600000e+01)
  br label %13

13:                                               ; preds = %6, %5
  %14 = phi double [ 0.000000e+00, %5 ], [ %12, %6 ]
  ret double %14
}

; Function Attrs: nounwind uwtable
define i32 @Cbs3_ManMemory(ptr noundef %0) #0 {
  %2 = alloca ptr, align 8
  %3 = alloca i32, align 4
  store ptr %0, ptr %2, align 8, !tbaa !14
  call void @llvm.lifetime.start.p0(i64 4, ptr %3) #12
  store i32 416, ptr %3, align 4, !tbaa !16
  %4 = load ptr, ptr %2, align 8, !tbaa !14
  %5 = getelementptr inbounds nuw %struct.Cbs3_Man_t_, ptr %4, i32 0, i32 10
  %6 = call double @Vec_IntMemory(ptr noundef %5)
  %7 = fptosi double %6 to i32
  %8 = load i32, ptr %3, align 4, !tbaa !16
  %9 = add nsw i32 %8, %7
  store i32 %9, ptr %3, align 4, !tbaa !16
  %10 = load ptr, ptr %2, align 8, !tbaa !14
  %11 = getelementptr inbounds nuw %struct.Cbs3_Man_t_, ptr %10, i32 0, i32 11
  %12 = call double @Vec_IntMemory(ptr noundef %11)
  %13 = fptosi double %12 to i32
  %14 = load i32, ptr %3, align 4, !tbaa !16
  %15 = add nsw i32 %14, %13
  store i32 %15, ptr %3, align 4, !tbaa !16
  %16 = load ptr, ptr %2, align 8, !tbaa !14
  %17 = getelementptr inbounds nuw %struct.Cbs3_Man_t_, ptr %16, i32 0, i32 12
  %18 = call double @Vec_IntMemory(ptr noundef %17)
  %19 = fptosi double %18 to i32
  %20 = load i32, ptr %3, align 4, !tbaa !16
  %21 = add nsw i32 %20, %19
  store i32 %21, ptr %3, align 4, !tbaa !16
  %22 = load ptr, ptr %2, align 8, !tbaa !14
  %23 = getelementptr inbounds nuw %struct.Cbs3_Man_t_, ptr %22, i32 0, i32 13
  %24 = call double @Vec_WecMemory(ptr noundef %23)
  %25 = fptosi double %24 to i32
  %26 = load i32, ptr %3, align 4, !tbaa !16
  %27 = add nsw i32 %26, %25
  store i32 %27, ptr %3, align 4, !tbaa !16
  %28 = load ptr, ptr %2, align 8, !tbaa !14
  %29 = getelementptr inbounds nuw %struct.Cbs3_Man_t_, ptr %28, i32 0, i32 14
  %30 = call double @Vec_StrMemory(ptr noundef %29)
  %31 = fptosi double %30 to i32
  %32 = load i32, ptr %3, align 4, !tbaa !16
  %33 = add nsw i32 %32, %31
  store i32 %33, ptr %3, align 4, !tbaa !16
  %34 = load ptr, ptr %2, align 8, !tbaa !14
  %35 = getelementptr inbounds nuw %struct.Cbs3_Man_t_, ptr %34, i32 0, i32 15
  %36 = call double @Vec_StrMemory(ptr noundef %35)
  %37 = fptosi double %36 to i32
  %38 = load i32, ptr %3, align 4, !tbaa !16
  %39 = add nsw i32 %38, %37
  store i32 %39, ptr %3, align 4, !tbaa !16
  %40 = load ptr, ptr %2, align 8, !tbaa !14
  %41 = getelementptr inbounds nuw %struct.Cbs3_Man_t_, ptr %40, i32 0, i32 17
  %42 = call double @Vec_IntMemory(ptr noundef %41)
  %43 = fptosi double %42 to i32
  %44 = load i32, ptr %3, align 4, !tbaa !16
  %45 = add nsw i32 %44, %43
  store i32 %45, ptr %3, align 4, !tbaa !16
  %46 = load ptr, ptr %2, align 8, !tbaa !14
  %47 = getelementptr inbounds nuw %struct.Cbs3_Man_t_, ptr %46, i32 0, i32 18
  %48 = call double @Vec_IntMemory(ptr noundef %47)
  %49 = fptosi double %48 to i32
  %50 = load i32, ptr %3, align 4, !tbaa !16
  %51 = add nsw i32 %50, %49
  store i32 %51, ptr %3, align 4, !tbaa !16
  %52 = load ptr, ptr %2, align 8, !tbaa !14
  %53 = getelementptr inbounds nuw %struct.Cbs3_Man_t_, ptr %52, i32 0, i32 19
  %54 = call double @Vec_IntMemory(ptr noundef %53)
  %55 = fptosi double %54 to i32
  %56 = load i32, ptr %3, align 4, !tbaa !16
  %57 = add nsw i32 %56, %55
  store i32 %57, ptr %3, align 4, !tbaa !16
  %58 = load ptr, ptr %2, align 8, !tbaa !14
  %59 = getelementptr inbounds nuw %struct.Cbs3_Man_t_, ptr %58, i32 0, i32 5
  %60 = load ptr, ptr %59, align 8, !tbaa !37
  %61 = call double @Vec_IntMemory(ptr noundef %60)
  %62 = fptosi double %61 to i32
  %63 = load i32, ptr %3, align 4, !tbaa !16
  %64 = add nsw i32 %63, %62
  store i32 %64, ptr %3, align 4, !tbaa !16
  %65 = load ptr, ptr %2, align 8, !tbaa !14
  %66 = getelementptr inbounds nuw %struct.Cbs3_Man_t_, ptr %65, i32 0, i32 6
  %67 = load ptr, ptr %66, align 8, !tbaa !38
  %68 = call double @Vec_IntMemory(ptr noundef %67)
  %69 = fptosi double %68 to i32
  %70 = load i32, ptr %3, align 4, !tbaa !16
  %71 = add nsw i32 %70, %69
  store i32 %71, ptr %3, align 4, !tbaa !16
  %72 = load ptr, ptr %2, align 8, !tbaa !14
  %73 = getelementptr inbounds nuw %struct.Cbs3_Man_t_, ptr %72, i32 0, i32 4
  %74 = getelementptr inbounds nuw %struct.Cbs3_Que_t_, ptr %73, i32 0, i32 2
  %75 = load i32, ptr %74, align 8, !tbaa !29
  %76 = mul nsw i32 4, %75
  %77 = load i32, ptr %3, align 4, !tbaa !16
  %78 = add nsw i32 %77, %76
  store i32 %78, ptr %3, align 4, !tbaa !16
  %79 = load ptr, ptr %2, align 8, !tbaa !14
  %80 = getelementptr inbounds nuw %struct.Cbs3_Man_t_, ptr %79, i32 0, i32 2
  %81 = getelementptr inbounds nuw %struct.Cbs3_Que_t_, ptr %80, i32 0, i32 2
  %82 = load i32, ptr %81, align 8, !tbaa !31
  %83 = mul nsw i32 4, %82
  %84 = load i32, ptr %3, align 4, !tbaa !16
  %85 = add nsw i32 %84, %83
  store i32 %85, ptr %3, align 4, !tbaa !16
  %86 = load ptr, ptr %2, align 8, !tbaa !14
  %87 = getelementptr inbounds nuw %struct.Cbs3_Man_t_, ptr %86, i32 0, i32 3
  %88 = getelementptr inbounds nuw %struct.Cbs3_Que_t_, ptr %87, i32 0, i32 2
  %89 = load i32, ptr %88, align 8, !tbaa !30
  %90 = mul nsw i32 4, %89
  %91 = load i32, ptr %3, align 4, !tbaa !16
  %92 = add nsw i32 %91, %90
  store i32 %92, ptr %3, align 4, !tbaa !16
  %93 = load i32, ptr %3, align 4, !tbaa !16
  call void @llvm.lifetime.end.p0(i64 4, ptr %3) #12
  ret i32 %93
}