; Function Attrs: nofree norecurse nosync nounwind memory(read, inaccessiblemem: none) uwtable
define i32 @Cbs3_ManMemory(ptr noundef readonly captures(none) %0) local_unnamed_addr #8 {
  %2 = getelementptr inbounds nuw i8, ptr %0, i64 144
  %3 = load i32, ptr %2, align 8, !tbaa !32
  %4 = getelementptr inbounds nuw i8, ptr %0, i64 160
  %5 = load i32, ptr %4, align 8, !tbaa !32
  %6 = getelementptr inbounds nuw i8, ptr %0, i64 176
  %7 = load i32, ptr %6, align 8, !tbaa !32
  %8 = getelementptr inbounds nuw i8, ptr %0, i64 192
  %.val.i = load i32, ptr %8, align 8, !tbaa !39
  %9 = sext i32 %.val.i to i64
  %10 = shl nsw i64 %9, 4
  %11 = uitofp i64 %10 to double
  %12 = getelementptr inbounds nuw i8, ptr %0, i64 196
  %13 = load i32, ptr %12, align 4, !tbaa !38
  %14 = icmp sgt i32 %13, 0
  br i1 %14, label %.lr.ph.i, label %Vec_WecMemory.exit

.lr.ph.i:                                         ; preds = %1
  %15 = getelementptr i8, ptr %0, i64 200
  %.val12.i = load ptr, ptr %15, align 8, !tbaa !40
  %wide.trip.count.i = zext nneg i32 %13 to i64
  br label %16

16:                                               ; preds = %16, %.lr.ph.i
  %indvars.iv.i = phi i64 [ 0, %.lr.ph.i ], [ %indvars.iv.next.i, %16 ]
  %.015.i = phi double [ %11, %.lr.ph.i ], [ %21, %16 ]
  %17 = getelementptr inbounds nuw %struct.Vec_Int_t_, ptr %.val12.i, i64 %indvars.iv.i
  %.val13.i = load i32, ptr %17, align 8, !tbaa !32
  %18 = sext i32 %.val13.i to i64
  %19 = shl nsw i64 %18, 2
  %20 = uitofp i64 %19 to double
  %21 = fadd double %.015.i, %20
  %indvars.iv.next.i = add nuw nsw i64 %indvars.iv.i, 1
  %exitcond.not.i = icmp eq i64 %indvars.iv.next.i, %wide.trip.count.i
  br i1 %exitcond.not.i, label %Vec_WecMemory.exit, label %16, !llvm.loop !50

Vec_WecMemory.exit:                               ; preds = %16, %1
  %.010.i = phi double [ %11, %1 ], [ %21, %16 ]
  %22 = getelementptr inbounds nuw i8, ptr %0, i64 208
  %23 = load i32, ptr %22, align 8, !tbaa !43
  %24 = getelementptr inbounds nuw i8, ptr %0, i64 224
  %25 = load i32, ptr %24, align 8, !tbaa !43
  %26 = getelementptr inbounds nuw i8, ptr %0, i64 256
  %27 = load i32, ptr %26, align 8, !tbaa !32
  %28 = getelementptr inbounds nuw i8, ptr %0, i64 272
  %29 = load i32, ptr %28, align 8, !tbaa !32
  %30 = getelementptr inbounds nuw i8, ptr %0, i64 288
  %31 = load i32, ptr %30, align 8, !tbaa !32
  %32 = getelementptr inbounds nuw i8, ptr %0, i64 112
  %33 = load ptr, ptr %32, align 8, !tbaa !34
  %.not.i = icmp eq ptr %33, null
  br i1 %.not.i, label %Vec_IntMemory.exit, label %34

34:                                               ; preds = %Vec_WecMemory.exit
  %35 = load i32, ptr %33, align 8, !tbaa !32
  %36 = sext i32 %35 to i64
  %37 = uitofp i64 %36 to double
  %38 = tail call double @llvm.fmuladd.f64(double %37, double 4.000000e+00, double 1.600000e+01)
  %39 = fptosi double %38 to i32
  br label %Vec_IntMemory.exit

Vec_IntMemory.exit:                               ; preds = %Vec_WecMemory.exit, %34
  %40 = phi i32 [ %39, %34 ], [ 0, %Vec_WecMemory.exit ]
  %41 = getelementptr inbounds nuw i8, ptr %0, i64 120
  %42 = load ptr, ptr %41, align 8, !tbaa !35
  %.not.i28 = icmp eq ptr %42, null
  br i1 %.not.i28, label %Vec_IntMemory.exit29, label %43

43:                                               ; preds = %Vec_IntMemory.exit
  %44 = load i32, ptr %42, align 8, !tbaa !32
  %45 = sext i32 %44 to i64
  %46 = uitofp i64 %45 to double
  %47 = tail call double @llvm.fmuladd.f64(double %46, double 4.000000e+00, double 1.600000e+01)
  %48 = fptosi double %47 to i32
  br label %Vec_IntMemory.exit29

Vec_IntMemory.exit29:                             ; preds = %Vec_IntMemory.exit, %43
  %49 = phi i32 [ %48, %43 ], [ 0, %Vec_IntMemory.exit ]
  %50 = sext i32 %3 to i64
  %51 = uitofp i64 %50 to double
  %52 = tail call double @llvm.fmuladd.f64(double %51, double 4.000000e+00, double 1.600000e+01)
  %53 = fptosi double %52 to i32
  %54 = add nsw i32 %53, 416
  %55 = sext i32 %5 to i64
  %56 = uitofp i64 %55 to double
  %57 = tail call double @llvm.fmuladd.f64(double %56, double 4.000000e+00, double 1.600000e+01)
  %58 = fptosi double %57 to i32
  %59 = add nsw i32 %54, %58
  %60 = sext i32 %7 to i64
  %61 = uitofp i64 %60 to double
  %62 = tail call double @llvm.fmuladd.f64(double %61, double 4.000000e+00, double 1.600000e+01)
  %63 = fptosi double %62 to i32
  %64 = add nsw i32 %59, %63
  %65 = fptosi double %.010.i to i32
  %66 = add nsw i32 %64, %65
  %67 = sext i32 %23 to i64
  %68 = uitofp i64 %67 to double
  %69 = fadd double %68, 1.600000e+01
  %70 = fptosi double %69 to i32
  %71 = add nsw i32 %66, %70
  %72 = sext i32 %25 to i64
  %73 = uitofp i64 %72 to double
  %74 = fadd double %73, 1.600000e+01
  %75 = fptosi double %74 to i32
  %76 = add nsw i32 %71, %75
  %77 = sext i32 %27 to i64
  %78 = uitofp i64 %77 to double
  %79 = tail call double @llvm.fmuladd.f64(double %78, double 4.000000e+00, double 1.600000e+01)
  %80 = fptosi double %79 to i32
  %81 = add nsw i32 %76, %80
  %82 = sext i32 %29 to i64
  %83 = uitofp i64 %82 to double
  %84 = tail call double @llvm.fmuladd.f64(double %83, double 4.000000e+00, double 1.600000e+01)
  %85 = fptosi double %84 to i32
  %86 = add nsw i32 %81, %85
  %87 = sext i32 %31 to i64
  %88 = uitofp i64 %87 to double
  %89 = tail call double @llvm.fmuladd.f64(double %88, double 4.000000e+00, double 1.600000e+01)
  %90 = fptosi double %89 to i32
  %91 = add nsw i32 %86, %90
  %92 = add nsw i32 %91, %40
  %93 = add nsw i32 %92, %49
  %94 = getelementptr inbounds nuw i8, ptr %0, i64 96
  %95 = load i32, ptr %94, align 8, !tbaa !23
  %96 = getelementptr inbounds nuw i8, ptr %0, i64 48
  %97 = load i32, ptr %96, align 8, !tbaa !25
  %98 = add i32 %97, %95
  %99 = getelementptr inbounds nuw i8, ptr %0, i64 72
  %100 = load i32, ptr %99, align 8, !tbaa !24
  %101 = add i32 %98, %100
  %102 = shl i32 %101, 2
  %103 = add i32 %93, %102
  ret i32 %103
}